
spinlock.o:     file format elf64-littleriscv


Disassembly of section .text:

0000000000000000 <read_mhartid>:
   0:	1101                	add	sp,sp,-32
   2:	ec22                	sd	s0,24(sp)
   4:	1000                	add	s0,sp,32
   6:	f14027f3          	csrr	a5,mhartid
   a:	fef43423          	sd	a5,-24(s0)
   e:	fe843783          	ld	a5,-24(s0)
  12:	853e                	mv	a0,a5
  14:	6462                	ld	s0,24(sp)
  16:	6105                	add	sp,sp,32
  18:	8082                	ret

000000000000001a <r_sstatus>:
  1a:	1101                	add	sp,sp,-32
  1c:	ec22                	sd	s0,24(sp)
  1e:	1000                	add	s0,sp,32
  20:	100027f3          	csrr	a5,sstatus
  24:	fef43423          	sd	a5,-24(s0)
  28:	fe843783          	ld	a5,-24(s0)
  2c:	853e                	mv	a0,a5
  2e:	6462                	ld	s0,24(sp)
  30:	6105                	add	sp,sp,32
  32:	8082                	ret

0000000000000034 <w_sstatus>:
  34:	1101                	add	sp,sp,-32
  36:	ec22                	sd	s0,24(sp)
  38:	1000                	add	s0,sp,32
  3a:	fea43423          	sd	a0,-24(s0)
  3e:	fe843783          	ld	a5,-24(s0)
  42:	10079073          	csrw	sstatus,a5
  46:	0001                	nop
  48:	6462                	ld	s0,24(sp)
  4a:	6105                	add	sp,sp,32
  4c:	8082                	ret

000000000000004e <intr_get>:
  4e:	1101                	add	sp,sp,-32
  50:	ec06                	sd	ra,24(sp)
  52:	e822                	sd	s0,16(sp)
  54:	1000                	add	s0,sp,32
  56:	00000097          	auipc	ra,0x0
  5a:	000080e7          	jalr	ra # 56 <intr_get+0x8>
  5e:	fea43423          	sd	a0,-24(s0)
  62:	fe843783          	ld	a5,-24(s0)
  66:	8b89                	and	a5,a5,2
  68:	00f037b3          	snez	a5,a5
  6c:	0ff7f793          	zext.b	a5,a5
  70:	2781                	sext.w	a5,a5
  72:	853e                	mv	a0,a5
  74:	60e2                	ld	ra,24(sp)
  76:	6442                	ld	s0,16(sp)
  78:	6105                	add	sp,sp,32
  7a:	8082                	ret

000000000000007c <intr_off>:
  7c:	1141                	add	sp,sp,-16
  7e:	e406                	sd	ra,8(sp)
  80:	e022                	sd	s0,0(sp)
  82:	0800                	add	s0,sp,16
  84:	00000097          	auipc	ra,0x0
  88:	000080e7          	jalr	ra # 84 <intr_off+0x8>
  8c:	87aa                	mv	a5,a0
  8e:	9bf5                	and	a5,a5,-3
  90:	853e                	mv	a0,a5
  92:	00000097          	auipc	ra,0x0
  96:	000080e7          	jalr	ra # 92 <intr_off+0x16>
  9a:	0001                	nop
  9c:	60a2                	ld	ra,8(sp)
  9e:	6402                	ld	s0,0(sp)
  a0:	0141                	add	sp,sp,16
  a2:	8082                	ret

00000000000000a4 <intr_on>:
  a4:	1141                	add	sp,sp,-16
  a6:	e406                	sd	ra,8(sp)
  a8:	e022                	sd	s0,0(sp)
  aa:	0800                	add	s0,sp,16
  ac:	00000097          	auipc	ra,0x0
  b0:	000080e7          	jalr	ra # ac <intr_on+0x8>
  b4:	87aa                	mv	a5,a0
  b6:	0027e793          	or	a5,a5,2
  ba:	853e                	mv	a0,a5
  bc:	00000097          	auipc	ra,0x0
  c0:	000080e7          	jalr	ra # bc <intr_on+0x18>
  c4:	0001                	nop
  c6:	60a2                	ld	ra,8(sp)
  c8:	6402                	ld	s0,0(sp)
  ca:	0141                	add	sp,sp,16
  cc:	8082                	ret

00000000000000ce <cpuid>:
  ce:	1101                	add	sp,sp,-32
  d0:	ec06                	sd	ra,24(sp)
  d2:	e822                	sd	s0,16(sp)
  d4:	1000                	add	s0,sp,32
  d6:	00000097          	auipc	ra,0x0
  da:	000080e7          	jalr	ra # d6 <cpuid+0x8>
  de:	87aa                	mv	a5,a0
  e0:	fef42623          	sw	a5,-20(s0)
  e4:	fec42783          	lw	a5,-20(s0)
  e8:	853e                	mv	a0,a5
  ea:	60e2                	ld	ra,24(sp)
  ec:	6442                	ld	s0,16(sp)
  ee:	6105                	add	sp,sp,32
  f0:	8082                	ret

00000000000000f2 <mycpu>:
  f2:	1101                	add	sp,sp,-32
  f4:	ec06                	sd	ra,24(sp)
  f6:	e822                	sd	s0,16(sp)
  f8:	1000                	add	s0,sp,32
  fa:	00000097          	auipc	ra,0x0
  fe:	000080e7          	jalr	ra # fa <mycpu+0x8>
 102:	87aa                	mv	a5,a0
 104:	fef42623          	sw	a5,-20(s0)
 108:	fec42703          	lw	a4,-20(s0)
 10c:	87ba                	mv	a5,a4
 10e:	0792                	sll	a5,a5,0x4
 110:	8f99                	sub	a5,a5,a4
 112:	078e                	sll	a5,a5,0x3
 114:	00000737          	lui	a4,0x0
 118:	00070713          	mv	a4,a4
 11c:	97ba                	add	a5,a5,a4
 11e:	fef43023          	sd	a5,-32(s0)
 122:	fe043783          	ld	a5,-32(s0)
 126:	853e                	mv	a0,a5
 128:	60e2                	ld	ra,24(sp)
 12a:	6442                	ld	s0,16(sp)
 12c:	6105                	add	sp,sp,32
 12e:	8082                	ret

0000000000000130 <init_lock>:
 130:	1101                	add	sp,sp,-32
 132:	ec22                	sd	s0,24(sp)
 134:	1000                	add	s0,sp,32
 136:	fea43423          	sd	a0,-24(s0)
 13a:	feb43023          	sd	a1,-32(s0)
 13e:	fe843783          	ld	a5,-24(s0)
 142:	0007b823          	sd	zero,16(a5)
 146:	fe843783          	ld	a5,-24(s0)
 14a:	0007a023          	sw	zero,0(a5)
 14e:	fe843783          	ld	a5,-24(s0)
 152:	fe043703          	ld	a4,-32(s0)
 156:	e798                	sd	a4,8(a5)
 158:	0001                	nop
 15a:	6462                	ld	s0,24(sp)
 15c:	6105                	add	sp,sp,32
 15e:	8082                	ret

0000000000000160 <acquire>:
 160:	1101                	add	sp,sp,-32
 162:	ec06                	sd	ra,24(sp)
 164:	e822                	sd	s0,16(sp)
 166:	1000                	add	s0,sp,32
 168:	fea43423          	sd	a0,-24(s0)
 16c:	00000097          	auipc	ra,0x0
 170:	000080e7          	jalr	ra # 16c <acquire+0xc>
 174:	fe843503          	ld	a0,-24(s0)
 178:	00000097          	auipc	ra,0x0
 17c:	000080e7          	jalr	ra # 178 <acquire+0x18>
 180:	0001                	nop

0000000000000182 <.L16>:
 182:	fe843783          	ld	a5,-24(s0)
 186:	4705                	li	a4,1
 188:	0ce7a72f          	amoswap.w.aq	a4,a4,(a5)
 18c:	0007079b          	sext.w	a5,a4
 190:	fbed                	bnez	a5,182 <.L16>
 192:	0ff0000f          	fence
 196:	00000097          	auipc	ra,0x0
 19a:	000080e7          	jalr	ra # 196 <.L16+0x14>
 19e:	872a                	mv	a4,a0
 1a0:	fe843783          	ld	a5,-24(s0)
 1a4:	eb98                	sd	a4,16(a5)
 1a6:	0001                	nop
 1a8:	60e2                	ld	ra,24(sp)
 1aa:	6442                	ld	s0,16(sp)
 1ac:	6105                	add	sp,sp,32
 1ae:	8082                	ret

00000000000001b0 <release>:
 1b0:	1101                	add	sp,sp,-32
 1b2:	ec06                	sd	ra,24(sp)
 1b4:	e822                	sd	s0,16(sp)
 1b6:	1000                	add	s0,sp,32
 1b8:	fea43423          	sd	a0,-24(s0)
 1bc:	fe843503          	ld	a0,-24(s0)
 1c0:	00000097          	auipc	ra,0x0
 1c4:	000080e7          	jalr	ra # 1c0 <release+0x10>
 1c8:	fe843783          	ld	a5,-24(s0)
 1cc:	0007b823          	sd	zero,16(a5)
 1d0:	0ff0000f          	fence
 1d4:	fe843783          	ld	a5,-24(s0)
 1d8:	0f50000f          	fence	iorw,ow
 1dc:	0807a02f          	amoswap.w	zero,zero,(a5)
 1e0:	00000097          	auipc	ra,0x0
 1e4:	000080e7          	jalr	ra # 1e0 <release+0x30>
 1e8:	0001                	nop
 1ea:	60e2                	ld	ra,24(sp)
 1ec:	6442                	ld	s0,16(sp)
 1ee:	6105                	add	sp,sp,32
 1f0:	8082                	ret

00000000000001f2 <holding>:
 1f2:	7139                	add	sp,sp,-64
 1f4:	fc06                	sd	ra,56(sp)
 1f6:	f822                	sd	s0,48(sp)
 1f8:	f426                	sd	s1,40(sp)
 1fa:	0080                	add	s0,sp,64
 1fc:	fca43423          	sd	a0,-56(s0)
 200:	fc843783          	ld	a5,-56(s0)
 204:	439c                	lw	a5,0(a5)
 206:	cf89                	beqz	a5,220 <.L19>
 208:	fc843783          	ld	a5,-56(s0)
 20c:	6b84                	ld	s1,16(a5)
 20e:	00000097          	auipc	ra,0x0
 212:	000080e7          	jalr	ra # 20e <holding+0x1c>
 216:	87aa                	mv	a5,a0
 218:	00f49463          	bne	s1,a5,220 <.L19>
 21c:	4785                	li	a5,1
 21e:	a011                	j	222 <.L20>

0000000000000220 <.L19>:
 220:	4781                	li	a5,0

0000000000000222 <.L20>:
 222:	fcf42e23          	sw	a5,-36(s0)
 226:	fdc42783          	lw	a5,-36(s0)
 22a:	853e                	mv	a0,a5
 22c:	70e2                	ld	ra,56(sp)
 22e:	7442                	ld	s0,48(sp)
 230:	74a2                	ld	s1,40(sp)
 232:	6121                	add	sp,sp,64
 234:	8082                	ret

0000000000000236 <push_off>:
 236:	1101                	add	sp,sp,-32
 238:	ec06                	sd	ra,24(sp)
 23a:	e822                	sd	s0,16(sp)
 23c:	1000                	add	s0,sp,32
 23e:	00000097          	auipc	ra,0x0
 242:	000080e7          	jalr	ra # 23e <push_off+0x8>
 246:	87aa                	mv	a5,a0
 248:	fef42623          	sw	a5,-20(s0)
 24c:	00000097          	auipc	ra,0x0
 250:	000080e7          	jalr	ra # 24c <push_off+0x16>
 254:	00000097          	auipc	ra,0x0
 258:	000080e7          	jalr	ra # 254 <push_off+0x1e>
 25c:	87aa                	mv	a5,a0
 25e:	5bbc                	lw	a5,112(a5)
 260:	eb89                	bnez	a5,272 <.L23>
 262:	00000097          	auipc	ra,0x0
 266:	000080e7          	jalr	ra # 262 <push_off+0x2c>
 26a:	872a                	mv	a4,a0
 26c:	fec42783          	lw	a5,-20(s0)
 270:	db7c                	sw	a5,116(a4)

0000000000000272 <.L23>:
 272:	00000097          	auipc	ra,0x0
 276:	000080e7          	jalr	ra # 272 <.L23>
 27a:	87aa                	mv	a5,a0
 27c:	5bb8                	lw	a4,112(a5)
 27e:	2705                	addw	a4,a4,1 # 1 <read_mhartid+0x1>
 280:	2701                	sext.w	a4,a4
 282:	dbb8                	sw	a4,112(a5)
 284:	0001                	nop
 286:	60e2                	ld	ra,24(sp)
 288:	6442                	ld	s0,16(sp)
 28a:	6105                	add	sp,sp,32
 28c:	8082                	ret

000000000000028e <pop_off>:
 28e:	1101                	add	sp,sp,-32
 290:	ec06                	sd	ra,24(sp)
 292:	e822                	sd	s0,16(sp)
 294:	1000                	add	s0,sp,32
 296:	00000097          	auipc	ra,0x0
 29a:	000080e7          	jalr	ra # 296 <pop_off+0x8>
 29e:	fea43423          	sd	a0,-24(s0)
 2a2:	00000097          	auipc	ra,0x0
 2a6:	000080e7          	jalr	ra # 2a2 <pop_off+0x14>
 2aa:	fe843783          	ld	a5,-24(s0)
 2ae:	5bbc                	lw	a5,112(a5)
 2b0:	37fd                	addw	a5,a5,-1
 2b2:	0007871b          	sext.w	a4,a5
 2b6:	fe843783          	ld	a5,-24(s0)
 2ba:	dbb8                	sw	a4,112(a5)
 2bc:	fe843783          	ld	a5,-24(s0)
 2c0:	eb89                	bnez	a5,2d2 <.L26>
 2c2:	fe843783          	ld	a5,-24(s0)
 2c6:	5bfc                	lw	a5,116(a5)
 2c8:	c789                	beqz	a5,2d2 <.L26>
 2ca:	00000097          	auipc	ra,0x0
 2ce:	000080e7          	jalr	ra # 2ca <pop_off+0x3c>

00000000000002d2 <.L26>:
 2d2:	0001                	nop
 2d4:	60e2                	ld	ra,24(sp)
 2d6:	6442                	ld	s0,16(sp)
 2d8:	6105                	add	sp,sp,32
 2da:	8082                	ret
