
main.o:     file format elf64-littleriscv


Disassembly of section .text:

0000000000000000 <read_mhartid>:
   0:	1101                	addi	sp,sp,-32
   2:	ec22                	sd	s0,24(sp)
   4:	1000                	addi	s0,sp,32
   6:	f14027f3          	csrr	a5,mhartid
   a:	fef43423          	sd	a5,-24(s0)
   e:	fe843783          	ld	a5,-24(s0)
  12:	853e                	mv	a0,a5
  14:	6462                	ld	s0,24(sp)
  16:	6105                	addi	sp,sp,32
  18:	8082                	ret

000000000000001a <cpuid>:
  1a:	1101                	addi	sp,sp,-32
  1c:	ec06                	sd	ra,24(sp)
  1e:	e822                	sd	s0,16(sp)
  20:	1000                	addi	s0,sp,32
  22:	00000097          	auipc	ra,0x0
  26:	000080e7          	jalr	ra # 22 <cpuid+0x8>
  2a:	87aa                	mv	a5,a0
  2c:	fef42623          	sw	a5,-20(s0)
  30:	fec42783          	lw	a5,-20(s0)
  34:	853e                	mv	a0,a5
  36:	60e2                	ld	ra,24(sp)
  38:	6442                	ld	s0,16(sp)
  3a:	6105                	addi	sp,sp,32
  3c:	8082                	ret

000000000000003e <mycpu>:
  3e:	1101                	addi	sp,sp,-32
  40:	ec06                	sd	ra,24(sp)
  42:	e822                	sd	s0,16(sp)
  44:	1000                	addi	s0,sp,32
  46:	00000097          	auipc	ra,0x0
  4a:	000080e7          	jalr	ra # 46 <mycpu+0x8>
  4e:	87aa                	mv	a5,a0
  50:	fef42623          	sw	a5,-20(s0)
  54:	fec42703          	lw	a4,-20(s0)
  58:	87ba                	mv	a5,a4
  5a:	0792                	slli	a5,a5,0x4
  5c:	8f99                	sub	a5,a5,a4
  5e:	078e                	slli	a5,a5,0x3
  60:	00000737          	lui	a4,0x0
  64:	00070713          	mv	a4,a4
  68:	97ba                	add	a5,a5,a4
  6a:	fef43023          	sd	a5,-32(s0)
  6e:	fe043783          	ld	a5,-32(s0)
  72:	853e                	mv	a0,a5
  74:	60e2                	ld	ra,24(sp)
  76:	6442                	ld	s0,16(sp)
  78:	6105                	addi	sp,sp,32
  7a:	8082                	ret

000000000000007c <main>:
  7c:	1141                	addi	sp,sp,-16
  7e:	e422                	sd	s0,8(sp)
  80:	0800                	addi	s0,sp,16
  82:	0001                	nop
  84:	6422                	ld	s0,8(sp)
  86:	0141                	addi	sp,sp,16
  88:	8082                	ret
