
cpu.o:     file format elf64-littleriscv


Disassembly of section .text:

0000000000000000 <read_mhartid>:
   0:	1101                	add	sp,sp,-32
   2:	ec22                	sd	s0,24(sp)
   4:	1000                	add	s0,sp,32
   6:	f14027f3          	csrr	a5,mhartid
   a:	fef43423          	sd	a5,-24(s0)
   e:	fe843783          	ld	a5,-24(s0)
  12:	853e                	mv	a0,a5
  14:	6462                	ld	s0,24(sp)
  16:	6105                	add	sp,sp,32
  18:	8082                	ret

000000000000001a <cpuid>:
  1a:	1141                	add	sp,sp,-16
  1c:	e406                	sd	ra,8(sp)
  1e:	e022                	sd	s0,0(sp)
  20:	0800                	add	s0,sp,16
  22:	00000097          	auipc	ra,0x0
  26:	000080e7          	jalr	ra # 22 <cpuid+0x8>
  2a:	87aa                	mv	a5,a0
  2c:	2781                	sext.w	a5,a5
  2e:	853e                	mv	a0,a5
  30:	60a2                	ld	ra,8(sp)
  32:	6402                	ld	s0,0(sp)
  34:	0141                	add	sp,sp,16
  36:	8082                	ret

0000000000000038 <mycpu>:
  38:	1141                	add	sp,sp,-16
  3a:	e406                	sd	ra,8(sp)
  3c:	e022                	sd	s0,0(sp)
  3e:	0800                	add	s0,sp,16
  40:	00000097          	auipc	ra,0x0
  44:	000080e7          	jalr	ra # 40 <mycpu+0x8>
  48:	87aa                	mv	a5,a0
  4a:	873e                	mv	a4,a5
  4c:	87ba                	mv	a5,a4
  4e:	0792                	sll	a5,a5,0x4
  50:	8f99                	sub	a5,a5,a4
  52:	078e                	sll	a5,a5,0x3
  54:	00000737          	lui	a4,0x0
  58:	00070713          	mv	a4,a4
  5c:	97ba                	add	a5,a5,a4
  5e:	853e                	mv	a0,a5
  60:	60a2                	ld	ra,8(sp)
  62:	6402                	ld	s0,0(sp)
  64:	0141                	add	sp,sp,16
  66:	8082                	ret
